; Function Attrs: mustprogress uwtable
define void @_ZNK14FilterGeodesic10filterInfoEi(ptr dead_on_unwind noalias writable sret(%class.QString) align 8 %0, ptr nocapture nonnull readnone align 8 %1, i32 noundef %2) unnamed_addr #9 align 2 {
  switch i32 %2, label %8 [
    i32 0, label %4
    i32 1, label %5
    i32 2, label %6
    i32 3, label %7
  ]

4:                                                ; preds = %3
  tail call void @_ZNK11QMetaObject2trEPKcS1_i(ptr dead_on_unwind writable sret(%class.QString) align 8 %0, ptr noundef nonnull align 8 dereferenceable(48) @_ZN14FilterGeodesic16staticMetaObjectE, ptr noundef nonnull @.str.16, ptr noundef null, i32 noundef -1)
  br label %10

5:                                                ; preds = %3
  tail call void @_ZNK11QMetaObject2trEPKcS1_i(ptr dead_on_unwind writable sret(%class.QString) align 8 %0, ptr noundef nonnull align 8 dereferenceable(48) @_ZN14FilterGeodesic16staticMetaObjectE, ptr noundef nonnull @.str.17, ptr noundef null, i32 noundef -1)
  br label %10

6:                                                ; preds = %3
  tail call void @_ZNK11QMetaObject2trEPKcS1_i(ptr dead_on_unwind writable sret(%class.QString) align 8 %0, ptr noundef nonnull align 8 dereferenceable(48) @_ZN14FilterGeodesic16staticMetaObjectE, ptr noundef nonnull @.str.18, ptr noundef null, i32 noundef -1)
  br label %10

7:                                                ; preds = %3
  tail call void @_ZNK11QMetaObject2trEPKcS1_i(ptr dead_on_unwind writable sret(%class.QString) align 8 %0, ptr noundef nonnull align 8 dereferenceable(48) @_ZN14FilterGeodesic16staticMetaObjectE, ptr noundef nonnull @.str.19, ptr noundef null, i32 noundef -1)
  br label %10

8:                                                ; preds = %3
  %9 = tail call noundef ptr @_ZN7QString16fromAscii_helperEPKci(ptr noundef nonnull @.str.20, i32 noundef 6)
  store ptr %9, ptr %0, align 8
  br label %10

10:                                               ; preds = %8, %7, %6, %5, %4
  ret void
}